target datalayout = "e-m:e-p270:32:32-p271:32:32-p272:64:64-i64:64-i128:128-f80:128-n8:16:32:64-S128"
target triple = "x86_64-pc-linux-gnu"

%struct._zval_struct = type { %union._zend_value, %union.anon, %union.anon.2 }
%union._zend_value = type { i64 }
%union.anon = type { i32 }
%union.anon.2 = type { i32 }
%struct._zend_refcounted_h = type { i32, %union.anon.3 }
%union.anon.3 = type { i32 }
%struct._spl_dllist_object = type { ptr, ptr, i32, i32, ptr, ptr, ptr, ptr, ptr, ptr, %struct._zend_object }
%struct._zend_object = type { %struct._zend_refcounted_h, i32, i32, ptr, ptr, ptr, [1 x %struct._zval_struct] }
%struct._spl_ptr_llist = type { ptr, ptr, i32 }
%struct._spl_ptr_llist_element = type { ptr, ptr, %struct._zval_struct }
%struct._spl_dllist_it = type { %struct._zend_object_iterator, ptr, i32, i32 }
%struct._zend_object_iterator = type { %struct._zend_object, %struct._zval_struct, ptr, i64 }

; Function Attrs: nounwind uwtable
define internal void @spl_dllist_it_helper_rewind(ptr noundef %0, ptr noundef %1, ptr noundef %2, i32 noundef %3) #0 {
  %5 = alloca ptr, align 8
  %6 = alloca ptr, align 8
  %7 = alloca ptr, align 8
  %8 = alloca i32, align 4
  store ptr %0, ptr %5, align 8, !tbaa !82
  store ptr %1, ptr %6, align 8, !tbaa !84
  store ptr %2, ptr %7, align 8, !tbaa !55
  store i32 %3, ptr %8, align 4, !tbaa !64
  %9 = load ptr, ptr %5, align 8, !tbaa !82
  %10 = load ptr, ptr %9, align 8, !tbaa !56
  %11 = icmp ne ptr %10, null
  br i1 %11, label %12, label %23

12:                                               ; preds = %4
  %13 = load ptr, ptr %5, align 8, !tbaa !82
  %14 = load ptr, ptr %13, align 8, !tbaa !56
  %15 = getelementptr inbounds nuw %struct._spl_ptr_llist_element, ptr %14, i32 0, i32 2
  %16 = getelementptr inbounds nuw %struct._zval_struct, ptr %15, i32 0, i32 2
  %17 = load i32, ptr %16, align 4, !tbaa !11
  %18 = add i32 %17, -1
  store i32 %18, ptr %16, align 4, !tbaa !11
  %19 = icmp ne i32 %18, 0
  br i1 %19, label %23, label %20

20:                                               ; preds = %12
  %21 = load ptr, ptr %5, align 8, !tbaa !82
  %22 = load ptr, ptr %21, align 8, !tbaa !56
  call void @_efree(ptr noundef %22)
  br label %23

23:                                               ; preds = %20, %12, %4
  %24 = load i32, ptr %8, align 4, !tbaa !64
  %25 = and i32 %24, 2
  %26 = icmp ne i32 %25, 0
  br i1 %26, label %27, label %37

27:                                               ; preds = %23
  %28 = load ptr, ptr %7, align 8, !tbaa !55
  %29 = getelementptr inbounds nuw %struct._spl_ptr_llist, ptr %28, i32 0, i32 2
  %30 = load i32, ptr %29, align 8, !tbaa !66
  %31 = sub nsw i32 %30, 1
  %32 = load ptr, ptr %6, align 8, !tbaa !84
  store i32 %31, ptr %32, align 4, !tbaa !64
  %33 = load ptr, ptr %7, align 8, !tbaa !55
  %34 = getelementptr inbounds nuw %struct._spl_ptr_llist, ptr %33, i32 0, i32 1
  %35 = load ptr, ptr %34, align 8, !tbaa !57
  %36 = load ptr, ptr %5, align 8, !tbaa !82
  store ptr %35, ptr %36, align 8, !tbaa !56
  br label %43

37:                                               ; preds = %23
  %38 = load ptr, ptr %6, align 8, !tbaa !84
  store i32 0, ptr %38, align 4, !tbaa !64
  %39 = load ptr, ptr %7, align 8, !tbaa !55
  %40 = getelementptr inbounds nuw %struct._spl_ptr_llist, ptr %39, i32 0, i32 0
  %41 = load ptr, ptr %40, align 8, !tbaa !65
  %42 = load ptr, ptr %5, align 8, !tbaa !82
  store ptr %41, ptr %42, align 8, !tbaa !56
  br label %43

43:                                               ; preds = %37, %27
  %44 = load ptr, ptr %5, align 8, !tbaa !82
  %45 = load ptr, ptr %44, align 8, !tbaa !56
  %46 = icmp ne ptr %45, null
  br i1 %46, label %47, label %54

47:                                               ; preds = %43
  %48 = load ptr, ptr %5, align 8, !tbaa !82
  %49 = load ptr, ptr %48, align 8, !tbaa !56
  %50 = getelementptr inbounds nuw %struct._spl_ptr_llist_element, ptr %49, i32 0, i32 2
  %51 = getelementptr inbounds nuw %struct._zval_struct, ptr %50, i32 0, i32 2
  %52 = load i32, ptr %51, align 4, !tbaa !11
  %53 = add i32 %52, 1
  store i32 %53, ptr %51, align 4, !tbaa !11
  br label %54

54:                                               ; preds = %47, %43
  ret void
}

; Function Attrs: inlinehint nounwind uwtable
define internal ptr @spl_dllist_from_obj(ptr noundef %0) #4 {
  %2 = alloca ptr, align 8
  store ptr %0, ptr %2, align 8, !tbaa !54
  %3 = load ptr, ptr %2, align 8, !tbaa !54
  %4 = getelementptr inbounds i8, ptr %3, i64 -72
  ret ptr %4
}

; Function Attrs: nounwind uwtable
define internal void @spl_dllist_it_rewind(ptr noundef %0) #0 {
  %2 = alloca ptr, align 8
  %3 = alloca ptr, align 8
  %4 = alloca ptr, align 8
  %5 = alloca ptr, align 8
  store ptr %0, ptr %2, align 8, !tbaa !148
  call void @llvm.lifetime.start.p0(i64 8, ptr %3) #14
  %6 = load ptr, ptr %2, align 8, !tbaa !148
  store ptr %6, ptr %3, align 8, !tbaa !116
  call void @llvm.lifetime.start.p0(i64 8, ptr %4) #14
  %7 = load ptr, ptr %2, align 8, !tbaa !148
  %8 = getelementptr inbounds nuw %struct._zend_object_iterator, ptr %7, i32 0, i32 1
  %9 = getelementptr inbounds nuw %struct._zval_struct, ptr %8, i32 0, i32 0
  %10 = load ptr, ptr %9, align 8, !tbaa !11
  %11 = call ptr @spl_dllist_from_obj(ptr noundef %10)
  store ptr %11, ptr %4, align 8, !tbaa !45
  call void @llvm.lifetime.start.p0(i64 8, ptr %5) #14
  %12 = load ptr, ptr %4, align 8, !tbaa !45
  %13 = getelementptr inbounds nuw %struct._spl_dllist_object, ptr %12, i32 0, i32 0
  %14 = load ptr, ptr %13, align 8, !tbaa !47
  store ptr %14, ptr %5, align 8, !tbaa !55
  %15 = load ptr, ptr %3, align 8, !tbaa !116
  %16 = getelementptr inbounds nuw %struct._spl_dllist_it, ptr %15, i32 0, i32 1
  %17 = load ptr, ptr %3, align 8, !tbaa !116
  %18 = getelementptr inbounds nuw %struct._spl_dllist_it, ptr %17, i32 0, i32 2
  %19 = load ptr, ptr %5, align 8, !tbaa !55
  %20 = load ptr, ptr %3, align 8, !tbaa !116
  %21 = getelementptr inbounds nuw %struct._spl_dllist_it, ptr %20, i32 0, i32 3
  %22 = load i32, ptr %21, align 4, !tbaa !124
  call void @spl_dllist_it_helper_rewind(ptr noundef %16, ptr noundef %18, ptr noundef %19, i32 noundef %22)
  call void @llvm.lifetime.end.p0(i64 8, ptr %5) #14
  call void @llvm.lifetime.end.p0(i64 8, ptr %4) #14
  call void @llvm.lifetime.end.p0(i64 8, ptr %3) #14
  ret void
}