; Function Attrs: nounwind uwtable
define internal void @spl_dllist_it_rewind(ptr noundef captures(none) initializes((96, 100)) %0) #0 {
  %2 = getelementptr inbounds nuw i8, ptr %0, i64 56
  %3 = load ptr, ptr %2, align 8, !tbaa !4
  %4 = getelementptr inbounds i8, ptr %3, i64 -72
  %5 = load ptr, ptr %4, align 8, !tbaa !43
  %6 = getelementptr inbounds nuw i8, ptr %0, i64 88
  %7 = getelementptr inbounds nuw i8, ptr %0, i64 96
  %8 = getelementptr inbounds nuw i8, ptr %0, i64 100
  %9 = load i32, ptr %8, align 4, !tbaa !119
  %10 = load ptr, ptr %6, align 8, !tbaa !67
  %.not.i = icmp eq ptr %10, null
  br i1 %.not.i, label %17, label %11

11:                                               ; preds = %1
  %12 = getelementptr inbounds nuw i8, ptr %10, i64 28
  %13 = load i32, ptr %12, align 4, !tbaa !4
  %14 = add i32 %13, -1
  store i32 %14, ptr %12, align 4, !tbaa !4
  %.not13.i = icmp eq i32 %14, 0
  br i1 %.not13.i, label %15, label %17

15:                                               ; preds = %11
  %16 = load ptr, ptr %6, align 8, !tbaa !67
  tail call void @_efree(ptr noundef %16) #13
  br label %17

17:                                               ; preds = %15, %11, %1
  %18 = and i32 %9, 2
  %.not14.i = icmp eq i32 %18, 0
  br i1 %.not14.i, label %24, label %19

19:                                               ; preds = %17
  %20 = getelementptr inbounds nuw i8, ptr %5, i64 16
  %21 = load i32, ptr %20, align 8, !tbaa !58
  %22 = add nsw i32 %21, -1
  %23 = getelementptr inbounds nuw i8, ptr %5, i64 8
  br label %24

24:                                               ; preds = %19, %17
  %.sink.i = phi i32 [ %22, %19 ], [ 0, %17 ]
  %storemerge.in.i = phi ptr [ %23, %19 ], [ %5, %17 ]
  store i32 %.sink.i, ptr %7, align 4, !tbaa !73
  %storemerge.i = load ptr, ptr %storemerge.in.i, align 8, !tbaa !67
  store ptr %storemerge.i, ptr %6, align 8, !tbaa !67
  %.not15.i = icmp eq ptr %storemerge.i, null
  br i1 %.not15.i, label %spl_dllist_it_helper_rewind.exit, label %25

25:                                               ; preds = %24
  %26 = getelementptr inbounds nuw i8, ptr %storemerge.i, i64 28
  %27 = load i32, ptr %26, align 4, !tbaa !4
  %28 = add i32 %27, 1
  store i32 %28, ptr %26, align 4, !tbaa !4
  br label %spl_dllist_it_helper_rewind.exit

spl_dllist_it_helper_rewind.exit:                 ; preds = %24, %25
  ret void
}